target datalayout = "e-m:e-p270:32:32-p271:32:32-p272:64:64-i64:64-i128:128-f80:128-n8:16:32:64-S128"
target triple = "x86_64-pc-linux-gnu"

%struct.ossl_object_digest_info_st = type { %struct.asn1_string_st, ptr, %struct.X509_algor_st, %struct.asn1_string_st }
%struct.X509_algor_st = type { ptr, ptr }
%struct.asn1_string_st = type { i32, i32, ptr, i64 }

; Function Attrs: nounwind uwtable
define i32 @OSSL_OBJECT_DIGEST_INFO_set1_digest(ptr noundef %0, i32 noundef %1, ptr noundef %2, ptr noundef %3) #0 {
  %5 = alloca i32, align 4
  %6 = alloca ptr, align 8
  %7 = alloca i32, align 4
  %8 = alloca ptr, align 8
  %9 = alloca ptr, align 8
  store ptr %0, ptr %6, align 8, !tbaa !3
  store i32 %1, ptr %7, align 4, !tbaa !8
  store ptr %2, ptr %8, align 8, !tbaa !10
  store ptr %3, ptr %9, align 8, !tbaa !12
  %10 = load ptr, ptr %6, align 8, !tbaa !3
  %11 = getelementptr inbounds nuw %struct.ossl_object_digest_info_st, ptr %10, i32 0, i32 0
  %12 = load i32, ptr %7, align 4, !tbaa !8
  %13 = sext i32 %12 to i64
  %14 = call i32 @ASN1_ENUMERATED_set(ptr noundef %11, i64 noundef %13)
  %15 = icmp sle i32 %14, 0
  br i1 %15, label %16, label %17

16:                                               ; preds = %4
  store i32 0, ptr %5, align 4
  br label %32

17:                                               ; preds = %4
  %18 = load ptr, ptr %6, align 8, !tbaa !3
  %19 = getelementptr inbounds nuw %struct.ossl_object_digest_info_st, ptr %18, i32 0, i32 2
  %20 = load ptr, ptr %8, align 8, !tbaa !10
  %21 = call i32 @X509_ALGOR_copy(ptr noundef %19, ptr noundef %20)
  %22 = icmp sle i32 %21, 0
  br i1 %22, label %23, label %24

23:                                               ; preds = %17
  store i32 0, ptr %5, align 4
  br label %32

24:                                               ; preds = %17
  %25 = load ptr, ptr %6, align 8, !tbaa !3
  %26 = getelementptr inbounds nuw %struct.ossl_object_digest_info_st, ptr %25, i32 0, i32 3
  %27 = load ptr, ptr %9, align 8, !tbaa !12
  %28 = call i32 @ASN1_STRING_copy(ptr noundef %26, ptr noundef %27)
  %29 = icmp sle i32 %28, 0
  br i1 %29, label %30, label %31

30:                                               ; preds = %24
  store i32 0, ptr %5, align 4
  br label %32

31:                                               ; preds = %24
  store i32 1, ptr %5, align 4
  br label %32

32:                                               ; preds = %31, %30, %23, %16
  %33 = load i32, ptr %5, align 4
  ret i32 %33
}