; Function Attrs: nounwind uwtable
define range(i32 0, 2) i32 @OSSL_OBJECT_DIGEST_INFO_set1_digest(ptr noundef %0, i32 noundef %1, ptr noundef %2, ptr noundef %3) local_unnamed_addr #0 {
  %5 = sext i32 %1 to i64
  %6 = tail call i32 @ASN1_ENUMERATED_set(ptr noundef %0, i64 noundef %5) #2
  %7 = icmp slt i32 %6, 1
  br i1 %7, label %16, label %8

8:                                                ; preds = %4
  %9 = getelementptr inbounds nuw i8, ptr %0, i64 32
  %10 = tail call i32 @X509_ALGOR_copy(ptr noundef nonnull %9, ptr noundef %2) #2
  %11 = icmp slt i32 %10, 1
  br i1 %11, label %16, label %12

12:                                               ; preds = %8
  %13 = getelementptr inbounds nuw i8, ptr %0, i64 48
  %14 = tail call i32 @ASN1_STRING_copy(ptr noundef nonnull %13, ptr noundef %3) #2
  %15 = icmp sgt i32 %14, 0
  %. = zext i1 %15 to i32
  br label %16

16:                                               ; preds = %12, %8, %4
  %.0 = phi i32 [ 0, %4 ], [ 0, %8 ], [ %., %12 ]
  ret i32 %.0
}